; Function Attrs: nofree nounwind uwtable
define void @If_DsdManPrintOne(ptr noundef captures(none) %0, ptr noundef readonly captures(none) %1, i32 noundef %2, ptr noundef %3, i32 noundef %4) local_unnamed_addr #13 {
  %6 = alloca i32, align 4
  call void @llvm.lifetime.start.p0(i64 4, ptr nonnull %6) #39
  store i32 0, ptr %6, align 4, !tbaa !40
  %7 = tail call i32 (ptr, ptr, ...) @fprintf(ptr noundef %0, ptr noundef nonnull @.str.15, i32 noundef %2) #39
  %8 = getelementptr i8, ptr %1, i64 48
  %.val = load ptr, ptr %8, align 8, !tbaa !23
  %9 = sext i32 %2 to i64
  %10 = getelementptr inbounds ptr, ptr %.val, i64 %9
  %11 = load ptr, ptr %10, align 8, !tbaa !24
  %12 = getelementptr inbounds nuw i8, ptr %11, i64 4
  %13 = load i32, ptr %12, align 4
  %14 = lshr i32 %13, 3
  %15 = and i32 %14, 31
  %16 = tail call i32 (ptr, ptr, ...) @fprintf(ptr noundef %0, ptr noundef nonnull @.str.16, i32 noundef %15) #39
  %.val17 = load ptr, ptr %8, align 8, !tbaa !23
  %17 = getelementptr inbounds ptr, ptr %.val17, i64 %9
  %18 = load ptr, ptr %17, align 8, !tbaa !24
  %19 = getelementptr inbounds nuw i8, ptr %18, i64 4
  %20 = load i32, ptr %19, align 4
  %21 = lshr i32 %20, 9
  %22 = and i32 %21, 262143
  %23 = tail call i32 (ptr, ptr, ...) @fprintf(ptr noundef %0, ptr noundef nonnull @.str.17, i32 noundef %22) #39
  %.val16 = load ptr, ptr %8, align 8, !tbaa !23
  %24 = getelementptr inbounds ptr, ptr %.val16, i64 %9
  %25 = load ptr, ptr %24, align 8, !tbaa !24
  %26 = getelementptr inbounds nuw i8, ptr %25, i64 4
  %27 = load i32, ptr %26, align 4
  %28 = lshr i32 %27, 8
  %29 = and i32 %28, 1
  %30 = tail call i32 (ptr, ptr, ...) @fprintf(ptr noundef %0, ptr noundef nonnull @.str.18, i32 noundef %29) #39
  %31 = shl nsw i32 %2, 1
  call void @If_DsdManPrint_rec(ptr noundef %0, ptr noundef %1, i32 noundef %31, ptr noundef %3, ptr noundef nonnull %6)
  %.not = icmp eq i32 %4, 0
  br i1 %.not, label %33, label %32

32:                                               ; preds = %5
  %fputc = tail call i32 @fputc(i32 10, ptr %0)
  br label %33

33:                                               ; preds = %32, %5
  call void @llvm.lifetime.end.p0(i64 4, ptr nonnull %6) #39
  ret void
}